(lp1
(lp2
I27
aI0
aI0
aI6
aa(lp3
I53
aI0
aI1
aI46
aa(lp4
I204
aI0
aI28
aI106
aa(lp5
I18
aI0
aI3
aI10
aa(lp6
I84
aI0
aI4
aI22
aa(lp7
I21
aI0
aI0
aI4
aa(lp8
I29
aI0
aI2
aI28
aa(lp9
I54
aI0
aI6
aI26
aa(lp10
I24
aI0
aI1
aI14
aa(lp11
I11
aI0
aI1
aI4
aa(lp12
I247
aI0
aI19
aI92
aa(lp13
I52
aI0
aI6
aI82
aa(lp14
I247
aI0
aI23
aI278
aa(lp15
I23
aI0
aI2
aI32
aa(lp16
I107
aI0
aI4
aI52
aa(lp17
I30
aI0
aI2
aI14
aa(lp18
I150
aI0
aI1
aI48
aa(lp19
I191
aI0
aI9
aI22
aa(lp20
I79
aI0
aI2
aI40
aa(lp21
I14
aI0
aI2
aI6
aa(lp22
I215
aI0
aI10
aI142
aa(lp23
I69
aI0
aI4
aI30
aa(lp24
I54
aI0
aI10
aI42
aa(lp25
I68
aI0
aI11
aI56
aa(lp26
I68
aI0
aI12
aI30
aa(lp27
I32
aI0
aI7
aI20
aa(lp28
I99
aI0
aI5
aI32
aa(lp29
I34
aI0
aI6
aI10
aa(lp30
I96
aI0
aI7
aI38
aa(lp31
I190
aI0
aI3
aI108
aa(lp32
I31
aI0
aI7
aI4
aa(lp33
I45
aI0
aI0
aI30
aa(lp34
I19
aI0
aI0
aI20
aa(lp35
I49
aI0
aI1
aI16
aa(lp36
I166
aI0
aI19
aI90
aa(lp37
I45
aI0
aI2
aI26
aa(lp38
I158
aI0
aI17
aI84
aa(lp39
I54
aI0
aI6
aI62
aa(lp40
I85
aI0
aI15
aI26
aa(lp41
I67
aI0
aI7
aI68
aa(lp42
I188
aI0
aI0
aI88
aa(lp43
I28
aI0
aI4
aI14
aa(lp44
I19
aI0
aI1
aI4
aa(lp45
I38
aI0
aI3
aI14
aa(lp46
I87
aI0
aI19
aI49
aa(lp47
I40
aI0
aI1
aI2
aa(lp48
I49
aI0
aI0
aI28
aa(lp49
I316
aI0
aI12
aI58
aa(lp50
I307
aI0
aI8
aI46
aa(lp51
I101
aI0
aI17
aI29
aa(lp52
I13
aI0
aI0
aI0
aa(lp53
I49
aI0
aI12
aI48
aa(lp54
I118
aI0
aI13
aI154
aa(lp55
I253
aI0
aI15
aI68
aa(lp56
I10
aI0
aI3
aI2
aa(lp57
I170
aI0
aI12
aI162
aa(lp58
I89
aI0
aI9
aI72
aa(lp59
I218
aI0
aI12
aI32
aa(lp60
I63
aI0
aI5
aI76
aa(lp61
I247
aI0
aI41
aI216
aa(lp62
I213
aI0
aI25
aI64
aa(lp63
I33
aI0
aI0
aI2
aa(lp64
I61
aI0
aI1
aI14
aa(lp65
I151
aI0
aI13
aI28
aa(lp66
I259
aI0
aI17
aI58
aa(lp67
I217
aI0
aI25
aI152
aa(lp68
I262
aI0
aI10
aI66
aa(lp69
I215
aI0
aI17
aI54
aa(lp70
I82
aI0
aI13
aI28
aa(lp71
I37
aI0
aI0
aI26
aa(lp72
I209
aI0
aI30
aI172
aa(lp73
I21
aI0
aI3
aI10
aa(lp74
I235
aI0
aI12
aI46
aa(lp75
I44
aI0
aI2
aI32
aa(lp76
I54
aI0
aI7
aI48
aa(lp77
I61
aI0
aI8
aI44
aa(lp78
I238
aI0
aI12
aI52
aa(lp79
I81
aI0
aI15
aI112
aa(lp80
I43
aI0
aI1
aI20
aa(lp81
I152
aI0
aI13
aI90
aa(lp82
I13
aI0
aI0
aI8
aa(lp83
I61
aI0
aI12
aI44
aa(lp84
I10
aI0
aI0
aI0
aa(lp85
I298
aI0
aI23
aI30
aa(lp86
I204
aI0
aI10
aI90
aa(lp87
I48
aI0
aI3
aI16
aa(lp88
I187
aI0
aI16
aI108
aa(lp89
I76
aI0
aI14
aI70
aa(lp90
I122
aI0
aI10
aI77
aa(lp91
I68
aI0
aI14
aI63
aa(lp92
I80
aI0
aI8
aI62
aa(lp93
I282
aI0
aI22
aI228
aa(lp94
I205
aI0
aI14
aI98
aa(lp95
I116
aI0
aI11
aI48
aa(lp96
I248
aI0
aI20
aI134
aa(lp97
I226
aI0
aI19
aI102
aa(lp98
I219
aI0
aI15
aI66
aa(lp99
I284
aI0
aI32
aI232
aa(lp100
I30
aI0
aI9
aI28
aa(lp101
I172
aI0
aI13
aI44
aa(lp102
I53
aI0
aI1
aI6
aa(lp103
I32
aI0
aI0
aI12
aa(lp104
I83
aI0
aI14
aI66
aa(lp105
I195
aI0
aI31
aI118
aa(lp106
I50
aI0
aI6
aI42
aa(lp107
I139
aI0
aI7
aI188
aa(lp108
I19
aI0
aI2
aI4
aa(lp109
I35
aI0
aI15
aI30
aa(lp110
I13
aI0
aI2
aI4
aa(lp111
I72
aI0
aI11
aI4
aa(lp112
I285
aI0
aI4
aI58
aa(lp113
I50
aI0
aI7
aI26
aa(lp114
I127
aI0
aI7
aI38
aa(lp115
I311
aI0
aI10
aI30
aa(lp116
I43
aI0
aI4
aI4
aa(lp117
I115
aI0
aI3
aI26
aa(lp118
I44
aI0
aI1
aI18
aa(lp119
I275
aI0
aI56
aI222
aa(lp120
I43
aI0
aI3
aI14
aa(lp121
I233
aI0
aI6
aI4
aa(lp122
I78
aI0
aI2
aI9
aa(lp123
I266
aI0
aI2
aI28
aa(lp124
I30
aI0
aI1
aI26
aa(lp125
I168
aI0
aI8
aI92
aa(lp126
I80
aI0
aI6
aI114
aa(lp127
I68
aI0
aI7
aI34
aa(lp128
I97
aI0
aI7
aI94
aa(lp129
I288
aI0
aI7
aI8
aa(lp130
I235
aI0
aI19
aI252
aa(lp131
I27
aI0
aI1
aI0
aa(lp132
I91
aI0
aI0
aI6
aa(lp133
I317
aI0
aI31
aI146
aa(lp134
I231
aI0
aI23
aI34
aa(lp135
I50
aI0
aI3
aI22
aa(lp136
I71
aI0
aI2
aI84
aa(lp137
I74
aI0
aI13
aI40
aa(lp138
I192
aI0
aI9
aI130
aa(lp139
I25
aI0
aI2
aI8
aa(lp140
I84
aI0
aI13
aI70
aa(lp141
I100
aI0
aI1
aI34
aa(lp142
I76
aI0
aI16
aI43
aa(lp143
I130
aI0
aI2
aI36
aa(lp144
I61
aI0
aI14
aI39
aa(lp145
I194
aI0
aI52
aI100
aa(lp146
I32
aI0
aI1
aI8
aa(lp147
I84
aI0
aI7
aI34
aa(lp148
I216
aI0
aI31
aI88
aa(lp149
I48
aI0
aI3
aI14
aa(lp150
I144
aI0
aI4
aI88
aa(lp151
I21
aI0
aI8
aI10
aa(lp152
I57
aI0
aI8
aI64
aa(lp153
I73
aI0
aI9
aI36
aa(lp154
I54
aI0
aI2
aI44
aa(lp155
I180
aI0
aI14
aI50
aa(lp156
I39
aI0
aI5
aI16
aa(lp157
I223
aI0
aI32
aI184
aa(lp158
I59
aI0
aI7
aI44
aa(lp159
I65
aI0
aI12
aI24
aa(lp160
I45
aI0
aI8
aI14
aa(lp161
I50
aI0
aI0
aI12
aa(lp162
I181
aI0
aI11
aI68
aa(lp163
I55
aI0
aI16
aI64
aa(lp164
I34
aI0
aI2
aI32
aa(lp165
I100
aI0
aI3
aI24
aa(lp166
I120
aI0
aI5
aI64
aa(lp167
I158
aI0
aI2
aI70
aa(lp168
I103
aI0
aI2
aI28
aa(lp169
I49
aI0
aI2
aI38
aa(lp170
I78
aI0
aI15
aI30
aa(lp171
I57
aI0
aI4
aI32
aa(lp172
I58
aI0
aI9
aI85
aa(lp173
I124
aI0
aI8
aI38
aa(lp174
I90
aI0
aI1
aI28
aa(lp175
I161
aI0
aI8
aI86
aa(lp176
I61
aI0
aI3
aI14
aa(lp177
I169
aI0
aI15
aI60
aa(lp178
I29
aI0
aI7
aI14
aa(lp179
I15
aI0
aI2
aI12
aa(lp180
I50
aI0
aI1
aI18
aa(lp181
I57
aI0
aI4
aI26
aa(lp182
I92
aI0
aI1
aI34
aa(lp183
I66
aI0
aI10
aI44
aa(lp184
I12
aI0
aI2
aI8
aa(lp185
I62
aI0
aI1
aI30
aa(lp186
I161
aI0
aI6
aI78
aa(lp187
I154
aI0
aI19
aI76
aa(lp188
I122
aI0
aI10
aI54
aa(lp189
I114
aI0
aI24
aI12
aa(lp190
I45
aI0
aI11
aI50
aa(lp191
I13
aI0
aI1
aI4
aa(lp192
I36
aI0
aI3
aI12
aa(lp193
I40
aI0
aI2
aI26
aa(lp194
I57
aI0
aI8
aI70
aa(lp195
I83
aI0
aI4
aI26
aa(lp196
I25
aI0
aI0
aI10
aa(lp197
I85
aI0
aI17
aI32
aa(lp198
I140
aI0
aI21
aI42
aa(lp199
I224
aI0
aI41
aI154
aa(lp200
I76
aI0
aI6
aI30
aa(lp201
I99
aI0
aI4
aI86
aa(lp202
I112
aI0
aI8
aI88
aa(lp203
I115
aI0
aI4
aI20
aa(lp204
I132
aI0
aI15
aI60
aa(lp205
I175
aI0
aI20
aI124
aa(lp206
I166
aI0
aI23
aI114
aa(lp207
I24
aI0
aI3
aI22
aa(lp208
I56
aI0
aI2
aI22
aa(lp209
I92
aI0
aI0
aI28
aa(lp210
I166
aI0
aI10
aI144
aa(lp211
I247
aI0
aI21
aI40
aa(lp212
I255
aI0
aI3
aI28
aa(lp213
I13
aI0
aI5
aI6
aa(lp214
I99
aI0
aI13
aI38
aa(lp215
I100
aI0
aI32
aI12
aa(lp216
I302
aI0
aI7
aI32
aa(lp217
I129
aI0
aI13
aI100
aa(lp218
I188
aI0
aI31
aI112
aa(lp219
I48
aI0
aI1
aI2
aa(lp220
I84
aI0
aI0
aI56
aa(lp221
I23
aI0
aI2
aI28
aa(lp222
I245
aI0
aI18
aI58
aa(lp223
I15
aI0
aI2
aI12
aa(lp224
I73
aI0
aI0
aI12
aa(lp225
I48
aI0
aI1
aI44
aa(lp226
I264
aI0
aI52
aI252
aa(lp227
I186
aI0
aI6
aI146
aa(lp228
I64
aI0
aI10
aI38
aa(lp229
I171
aI0
aI9
aI102
aa(lp230
I190
aI0
aI18
aI126
aa(lp231
I21
aI0
aI0
aI2
aa(lp232
I52
aI0
aI8
aI42
aa(lp233
I70
aI0
aI16
aI61
aa(lp234
I227
aI0
aI9
aI50
aa(lp235
I118
aI0
aI4
aI48
aa(lp236
I11
aI0
aI4
aI2
aa(lp237
I45
aI0
aI3
aI16
aa(lp238
I175
aI0
aI29
aI118
aa(lp239
I22
aI0
aI6
aI16
aa(lp240
I240
aI0
aI22
aI226
aa(lp241
I62
aI0
aI4
aI26
aa(lp242
I72
aI0
aI2
aI36
aa(lp243
I83
aI0
aI20
aI111
aa(lp244
I59
aI0
aI7
aI44
aa(lp245
I82
aI0
aI14
aI64
aa(lp246
I19
aI0
aI0
aI12
aa(lp247
I41
aI0
aI1
aI8
aa(lp248
I186
aI0
aI14
aI104
aa(lp249
I68
aI0
aI5
aI52
aa(lp250
I56
aI0
aI6
aI26
aa(lp251
I72
aI0
aI14
aI50
aa(lp252
I33
aI0
aI5
aI10
aa(lp253
I77
aI0
aI9
aI36
aa(lp254
I220
aI0
aI20
aI138
aa(lp255
I45
aI0
aI0
aI26
aa(lp256
I97
aI0
aI9
aI42
aa(lp257
I321
aI0
aI26
aI218
aa(lp258
I14
aI0
aI2
aI4
aa(lp259
I30
aI0
aI2
aI28
aa(lp260
I77
aI0
aI24
aI55
aa(lp261
I17
aI0
aI5
aI2
aa(lp262
I156
aI0
aI2
aI22
aa(lp263
I84
aI0
aI10
aI14
aa(lp264
I42
aI0
aI3
aI8
aa(lp265
I372
aI0
aI20
aI56
aa(lp266
I181
aI0
aI7
aI66
aa(lp267
I19
aI0
aI3
aI12
aa(lp268
I18
aI0
aI2
aI18
aa(lp269
I54
aI0
aI7
aI32
aa(lp270
I184
aI0
aI22
aI100
aa(lp271
I67
aI0
aI5
aI40
aa(lp272
I106
aI0
aI16
aI46
aa(lp273
I26
aI0
aI2
aI14
aa(lp274
I303
aI0
aI11
aI50
aa(lp275
I169
aI0
aI13
aI56
aa(lp276
I43
aI0
aI0
aI26
aa(lp277
I112
aI0
aI12
aI56
aa(lp278
I60
aI0
aI2
aI50
aa(lp279
I202
aI0
aI23
aI132
aa(lp280
I87
aI0
aI21
aI108
aa(lp281
I90
aI0
aI10
aI48
aa(lp282
I91
aI0
aI1
aI32
aa(lp283
I90
aI0
aI7
aI52
aa(lp284
I98
aI0
aI4
aI46
aa(lp285
I61
aI0
aI13
aI66
aa(lp286
I250
aI0
aI5
aI42
aa(lp287
I101
aI0
aI21
aI86
aa(lp288
I39
aI0
aI6
aI23
aa(lp289
I44
aI0
aI15
aI24
aa(lp290
I22
aI0
aI0
aI8
aa(lp291
I23
aI0
aI2
aI4
aa(lp292
I82
aI0
aI13
aI72
aa(lp293
I223
aI0
aI11
aI41
aa(lp294
I39
aI0
aI0
aI8
aa(lp295
I28
aI0
aI4
aI16
aa(lp296
I92
aI0
aI8
aI36
aa(lp297
I32
aI0
aI2
aI18
aa(lp298
I33
aI0
aI8
aI15
aa(lp299
I166
aI0
aI29
aI78
aa(lp300
I15
aI0
aI2
aI10
aa(lp301
I49
aI0
aI4
aI24
aa(lp302
I54
aI0
aI0
aI4
aa(lp303
I219
aI0
aI27
aI118
aa(lp304
I101
aI0
aI18
aI78
aa(lp305
I156
aI0
aI3
aI54
aa(lp306
I72
aI0
aI5
aI22
aa(lp307
I98
aI0
aI3
aI16
aa(lp308
I40
aI0
aI0
aI0
aa(lp309
I40
aI0
aI9
aI20
aa(lp310
I59
aI0
aI8
aI50
aa(lp311
I42
aI0
aI2
aI18
aa(lp312
I115
aI0
aI15
aI66
aa(lp313
I50
aI0
aI7
aI34
aa(lp314
I117
aI0
aI8
aI34
aa(lp315
I66
aI0
aI6
aI96
aa(lp316
I90
aI0
aI5
aI74
aa(lp317
I34
aI0
aI2
aI4
aa(lp318
I47
aI0
aI3
aI40
aa(lp319
I54
aI0
aI7
aI58
aa(lp320
I33
aI0
aI4
aI18
aa(lp321
I172
aI0
aI20
aI124
aa(lp322
I139
aI0
aI1
aI28
aa(lp323
I79
aI0
aI5
aI86
aa(lp324
I214
aI0
aI34
aI88
aa(lp325
I51
aI0
aI5
aI34
aa(lp326
I74
aI0
aI9
aI26
aa(lp327
I30
aI0
aI1
aI6
aa(lp328
I18
aI0
aI4
aI18
aa(lp329
I143
aI0
aI17
aI90
aa(lp330
I47
aI0
aI7
aI36
aa(lp331
I17
aI0
aI4
aI28
aa(lp332
I14
aI0
aI1
aI10
aa(lp333
I51
aI0
aI14
aI50
aa(lp334
I244
aI0
aI13
aI36
aa(lp335
I66
aI0
aI11
aI30
aa(lp336
I36
aI0
aI5
aI8
aa(lp337
I22
aI0
aI5
aI24
aa(lp338
I28
aI0
aI5
aI6
aa(lp339
I61
aI0
aI7
aI34
aa(lp340
I79
aI0
aI4
aI30
aa(lp341
I62
aI0
aI8
aI26
aa(lp342
I307
aI0
aI13
aI114
aa(lp343
I15
aI0
aI2
aI6
aa(lp344
I114
aI0
aI12
aI68
aa(lp345
I27
aI0
aI3
aI14
aa(lp346
I137
aI0
aI8
aI38
aa(lp347
I47
aI0
aI5
aI22
aa(lp348
I146
aI0
aI15
aI114
aa(lp349
I51
aI0
aI5
aI28
aa(lp350
I19
aI0
aI1
aI8
aa(lp351
I271
aI0
aI25
aI50
aa(lp352
I45
aI0
aI9
aI14
aa(lp353
I27
aI0
aI11
aI14
aa(lp354
I228
aI0
aI15
aI208
aa(lp355
I52
aI0
aI5
aI22
aa(lp356
I28
aI0
aI0
aI12
aa(lp357
I81
aI0
aI12
aI59
aa(lp358
I83
aI0
aI0
aI58
aa(lp359
I216
aI0
aI9
aI116
aa(lp360
I59
aI0
aI5
aI42
aa(lp361
I34
aI0
aI3
aI28
aa(lp362
I187
aI0
aI16
aI82
aa(lp363
I35
aI0
aI0
aI14
aa(lp364
I199
aI0
aI11
aI106
aa(lp365
I56
aI0
aI1
aI18
aa(lp366
I60
aI0
aI0
aI6
aa(lp367
I36
aI0
aI3
aI18
aa(lp368
I43
aI0
aI0
aI14
aa(lp369
I98
aI0
aI4
aI40
aa(lp370
I106
aI0
aI20
aI24
aa(lp371
I47
aI0
aI4
aI38
aa(lp372
I55
aI0
aI0
aI28
aa(lp373
I71
aI0
aI8
aI44
aa(lp374
I21
aI0
aI1
aI2
aa(lp375
I229
aI0
aI7
aI28
aa(lp376
I216
aI0
aI15
aI170
aa(lp377
I153
aI0
aI8
aI28
aa(lp378
I50
aI0
aI4
aI38
aa(lp379
I83
aI0
aI3
aI118
aa(lp380
I177
aI0
aI11
aI104
aa(lp381
I107
aI0
aI16
aI48
aa(lp382
I44
aI0
aI9
aI28
aa(lp383
I45
aI0
aI1
aI10
aa(lp384
I46
aI0
aI0
aI22
aa(lp385
I54
aI0
aI5
aI33
aa(lp386
I121
aI0
aI18
aI104
aa(lp387
I37
aI0
aI3
aI34
aa(lp388
I53
aI0
aI4
aI16
aa(lp389
I58
aI0
aI1
aI6
aa(lp390
I22
aI0
aI3
aI6
aa(lp391
I95
aI0
aI8
aI72
aa(lp392
I59
aI0
aI7
aI10
aa(lp393
I19
aI0
aI1
aI2
aa(lp394
I20
aI0
aI6
aI6
aa(lp395
I181
aI0
aI26
aI154
aa(lp396
I54
aI0
aI1
aI6
aa(lp397
I255
aI0
aI21
aI206
aa(lp398
I78
aI0
aI6
aI54
aa(lp399
I18
aI0
aI0
aI18
aa(lp400
I30
aI0
aI0
aI8
aa(lp401
I48
aI0
aI9
aI22
aa(lp402
I53
aI0
aI9
aI38
aa(lp403
I153
aI0
aI2
aI60
aa(lp404
I152
aI0
aI21
aI34
aa(lp405
I60
aI0
aI12
aI66
aa(lp406
I55
aI0
aI3
aI54
aa(lp407
I208
aI0
aI38
aI94
aa(lp408
I94
aI0
aI8
aI88
aa(lp409
I38
aI0
aI0
aI32
aa(lp410
I42
aI0
aI0
aI8
aa(lp411
I81
aI0
aI5
aI40
aa(lp412
I44
aI0
aI10
aI20
aa(lp413
I287
aI0
aI10
aI102
aa(lp414
I193
aI0
aI9
aI86
aa(lp415
I282
aI0
aI50
aI286
aa(lp416
I93
aI0
aI1
aI78
aa(lp417
I204
aI0
aI40
aI204
aa(lp418
I68
aI0
aI4
aI24
aa(lp419
I176
aI0
aI9
aI84
aa(lp420
I82
aI0
aI6
aI32
aa(lp421
I46
aI0
aI1
aI28
aa(lp422
I164
aI0
aI28
aI90
aa(lp423
I207
aI0
aI16
aI154
aa(lp424
I207
aI0
aI23
aI150
aa(lp425
I65
aI0
aI0
aI24
aa(lp426
I116
aI0
aI20
aI90
aa(lp427
I88
aI0
aI0
aI6
aa(lp428
I79
aI0
aI8
aI50
aa(lp429
I83
aI0
aI9
aI64
aa(lp430
I100
aI0
aI3
aI34
aa(lp431
I76
aI0
aI3
aI38
aa(lp432
I133
aI0
aI11
aI38
aa(lp433
I34
aI0
aI3
aI42
aa(lp434
I38
aI0
aI0
aI6
aa(lp435
I81
aI0
aI7
aI20
aa(lp436
I325
aI0
aI20
aI64
aa(lp437
I29
aI0
aI1
aI14
aa(lp438
I31
aI0
aI2
aI12
aa(lp439
I63
aI0
aI6
aI88
aa(lp440
I55
aI0
aI9
aI30
aa(lp441
I185
aI0
aI15
aI122
aa(lp442
I138
aI0
aI8
aI90
aa(lp443
I277
aI0
aI17
aI42
aa(lp444
I213
aI0
aI24
aI140
aa(lp445
I149
aI0
aI20
aI48
aa(lp446
I257
aI0
aI14
aI92
aa(lp447
I312
aI0
aI11
aI52
aa(lp448
I12
aI0
aI2
aI8
aa(lp449
I170
aI0
aI6
aI78
aa(lp450
I77
aI0
aI3
aI62
aa(lp451
I42
aI0
aI0
aI24
aa(lp452
I153
aI0
aI0
aI42
aa(lp453
I268
aI0
aI12
aI108
aa(lp454
I267
aI0
aI48
aI246
aa(lp455
I59
aI0
aI1
aI20
aa(lp456
I124
aI0
aI2
aI14
aa(lp457
I57
aI0
aI2
aI48
aa(lp458
I100
aI0
aI6
aI26
aa(lp459
I27
aI0
aI3
aI34
aa(lp460
I17
aI0
aI0
aI0
aa(lp461
I78
aI0
aI7
aI58
aa(lp462
I31
aI0
aI6
aI28
aa(lp463
I244
aI0
aI21
aI10
aa(lp464
I31
aI0
aI1
aI28
aa(lp465
I12
aI0
aI0
aI2
aa(lp466
I70
aI0
aI9
aI46
aa(lp467
I17
aI0
aI3
aI12
aa(lp468
I27
aI0
aI0
aI2
aa(lp469
I119
aI0
aI12
aI25
aa(lp470
I147
aI0
aI5
aI40
aa(lp471
I31
aI0
aI3
aI14
aa(lp472
I61
aI0
aI4
aI28
aa(lp473
I27
aI0
aI1
aI10
aa(lp474
I119
aI0
aI13
aI85
aa(lp475
I15
aI0
aI2
aI8
aa(lp476
I172
aI0
aI5
aI118
aa(lp477
I117
aI0
aI16
aI130
aa(lp478
I28
aI0
aI3
aI12
aa(lp479
I267
aI0
aI11
aI27
aa(lp480
I90
aI0
aI16
aI29
aa(lp481
I30
aI0
aI3
aI2
aa(lp482
I72
aI0
aI10
aI30
aa(lp483
I89
aI0
aI9
aI48
aa(lp484
I132
aI0
aI4
aI60
aa(lp485
I64
aI0
aI5
aI22
aa(lp486
I34
aI0
aI2
aI6
aa(lp487
I51
aI0
aI5
aI52
aa(lp488
I12
aI0
aI0
aI0
aa(lp489
I81
aI0
aI10
aI58
aa(lp490
I174
aI0
aI23
aI98
aa(lp491
I153
aI0
aI20
aI55
aa(lp492
I114
aI0
aI7
aI32
aa(lp493
I237
aI0
aI6
aI38
aa(lp494
I105
aI0
aI10
aI68
aa(lp495
I214
aI0
aI4
aI102
aa(lp496
I257
aI0
aI63
aI258
aa(lp497
I105
aI0
aI4
aI66
aa(lp498
I48
aI0
aI6
aI38
aa(lp499
I16
aI0
aI2
aI28
aa(lp500
I329
aI0
aI8
aI72
aa(lp501
I106
aI0
aI15
aI108
aa(lp502
I106
aI0
aI18
aI32
aa(lp503
I157
aI0
aI23
aI60
aa(lp504
I65
aI0
aI10
aI44
aa(lp505
I94
aI0
aI8
aI70
aa(lp506
I40
aI0
aI2
aI14
aa(lp507
I43
aI0
aI10
aI19
aa(lp508
I94
aI0
aI9
aI52
aa(lp509
I152
aI0
aI22
aI54
aa(lp510
I39
aI0
aI6
aI26
aa(lp511
I262
aI0
aI23
aI86
aa(lp512
I221
aI0
aI9
aI24
aa(lp513
I143
aI0
aI16
aI56
aa(lp514
I25
aI0
aI5
aI30
aa(lp515
I85
aI0
aI1
aI18
aa(lp516
I140
aI0
aI27
aI54
aa(lp517
I30
aI0
aI0
aI6
aa(lp518
I18
aI0
aI4
aI8
aa(lp519
I62
aI0
aI2
aI35
aa(lp520
I26
aI0
aI4
aI2
aa(lp521
I215
aI0
aI36
aI176
aa(lp522
I58
aI0
aI5
aI12
aa(lp523
I37
aI0
aI0
aI12
aa(lp524
I109
aI0
aI17
aI50
aa(lp525
I124
aI0
aI0
aI32
aa(lp526
I71
aI0
aI12
aI92
aa(lp527
I111
aI0
aI5
aI48
aa(lp528
I165
aI0
aI7
aI24
aa(lp529
I34
aI0
aI7
aI10
aa(lp530
I111
aI0
aI4
aI88
aa(lp531
I70
aI0
aI2
aI32
aa(lp532
I77
aI0
aI13
aI100
aa(lp533
I34
aI0
aI3
aI8
aa(lp534
I275
aI0
aI36
aI247
aa(lp535
I47
aI0
aI4
aI20
aa(lp536
I45
aI0
aI9
aI24
aa(lp537
I85
aI0
aI4
aI32
aa(lp538
I315
aI0
aI18
aI31
aa(lp539
I33
aI0
aI4
aI20
aa(lp540
I26
aI0
aI0
aI0
aa(lp541
I41
aI0
aI6
aI12
aa(lp542
I313
aI0
aI21
aI182
aa(lp543
I35
aI0
aI17
aI18
aa(lp544
I75
aI0
aI6
aI48
aa(lp545
I123
aI0
aI2
aI22
aa(lp546
I144
aI0
aI1
aI48
aa(lp547
I205
aI0
aI32
aI86
aa(lp548
I15
aI0
aI1
aI4
aa(lp549
I25
aI0
aI11
aI16
aa(lp550
I66
aI0
aI15
aI28
aa(lp551
I275
aI0
aI11
aI130
aa(lp552
I123
aI0
aI12
aI32
aa(lp553
I55
aI0
aI1
aI18
aa(lp554
I68
aI0
aI6
aI52
aa(lp555
I258
aI0
aI15
aI34
aa(lp556
I31
aI0
aI2
aI8
aa(lp557
I27
aI0
aI0
aI14
aa(lp558
I168
aI0
aI35
aI102
aa(lp559
I36
aI0
aI2
aI28
aa(lp560
I46
aI0
aI7
aI66
aa(lp561
I21
aI0
aI3
aI6
aa(lp562
I84
aI0
aI11
aI26
aa(lp563
I30
aI0
aI4
aI14
aa(lp564
I25
aI0
aI2
aI14
aa(lp565
I185
aI0
aI14
aI31
aa(lp566
I13
aI0
aI1
aI2
aa(lp567
I16
aI0
aI2
aI20
aa(lp568
I248
aI0
aI28
aI114
aa(lp569
I25
aI0
aI1
aI20
aa(lp570
I191
aI0
aI11
aI140
aa(lp571
I43
aI0
aI3
aI24
aa(lp572
I31
aI0
aI3
aI12
aa(lp573
I55
aI0
aI1
aI24
aa(lp574
I166
aI0
aI13
aI154
aa(lp575
I47
aI0
aI8
aI34
aa(lp576
I83
aI0
aI1
aI92
aa(lp577
I142
aI0
aI13
aI52
aa(lp578
I60
aI0
aI7
aI18
aa(lp579
I58
aI0
aI8
aI46
aa(lp580
I18
aI0
aI3
aI10
aa(lp581
I18
aI0
aI2
aI6
aa(lp582
I22
aI0
aI3
aI10
aa(lp583
I147
aI0
aI5
aI56
aa(lp584
I29
aI0
aI5
aI18
aa(lp585
I49
aI0
aI2
aI46
aa(lp586
I107
aI0
aI13
aI30
aa(lp587
I41
aI0
aI5
aI19
aa(lp588
I32
aI0
aI5
aI22
aa(lp589
I25
aI0
aI7
aI4
aa(lp590
I30
aI0
aI2
aI14
aa(lp591
I75
aI0
aI8
aI46
aa(lp592
I49
aI0
aI5
aI22
aa(lp593
I224
aI0
aI11
aI108
aa(lp594
I264
aI0
aI0
aI72
aa(lp595
I61
aI0
aI6
aI30
aa(lp596
I121
aI0
aI6
aI64
aa(lp597
I235
aI0
aI16
aI64
aa(lp598
I54
aI0
aI4
aI32
aa(lp599
I78
aI0
aI2
aI22
aa(lp600
I109
aI0
aI24
aI84
aa.